#include <math.h>
#include <stdio.h>
#include <stdlib.h>
#include <string.h>

int main(){
int a[13]={0,31,28,31,30,31,30,31,31,30,31,30,31};
int w,i,j,sum=13,day;
scanf("%d",&w);
for(j=1;j<=12;j++){
	for(i=0;i<=j-1;i++){
    sum=sum+a[i];
	}
	day=sum%7;
    day=(w+day)%7;
	if(day==6){
		printf("%d\n",j);
	}
	sum=13;
	}
return 0;
}